target datalayout = "e-m:e-p270:32:32-p271:32:32-p272:64:64-i64:64-i128:128-f80:128-n8:16:32:64-S128"
target triple = "x86_64-pc-linux-gnu"

%struct.raxStack = type { ptr, i64, i64, [32 x ptr], i32 }
%struct.raxIterator = type { i32, ptr, ptr, ptr, i64, i64, [128 x i8], ptr, %struct.raxStack, ptr }

; Function Attrs: nounwind uwtable
define dso_local i32 @raxCompare(ptr noundef %0, ptr noundef %1, ptr noundef %2, i64 noundef %3) #0 {
  %5 = alloca i32, align 4
  %6 = alloca ptr, align 8
  %7 = alloca ptr, align 8
  %8 = alloca ptr, align 8
  %9 = alloca i64, align 8
  %10 = alloca i32, align 4
  %11 = alloca i32, align 4
  %12 = alloca i32, align 4
  %13 = alloca i32, align 4
  %14 = alloca i64, align 8
  %15 = alloca i32, align 4
  store ptr %0, ptr %6, align 8, !tbaa !44
  store ptr %1, ptr %7, align 8, !tbaa !24
  store ptr %2, ptr %8, align 8, !tbaa !24
  store i64 %3, ptr %9, align 8, !tbaa !9
  call void @llvm.lifetime.start.p0(i64 4, ptr %10) #13
  store i32 0, ptr %10, align 4, !tbaa !5
  call void @llvm.lifetime.start.p0(i64 4, ptr %11) #13
  store i32 0, ptr %11, align 4, !tbaa !5
  call void @llvm.lifetime.start.p0(i64 4, ptr %12) #13
  store i32 0, ptr %12, align 4, !tbaa !5
  %16 = load ptr, ptr %7, align 8, !tbaa !24
  %17 = getelementptr inbounds i8, ptr %16, i64 0
  %18 = load i8, ptr %17, align 1, !tbaa !17
  %19 = sext i8 %18 to i32
  %20 = icmp eq i32 %19, 61
  br i1 %20, label %27, label %21

21:                                               ; preds = %4
  %22 = load ptr, ptr %7, align 8, !tbaa !24
  %23 = getelementptr inbounds i8, ptr %22, i64 1
  %24 = load i8, ptr %23, align 1, !tbaa !17
  %25 = sext i8 %24 to i32
  %26 = icmp eq i32 %25, 61
  br i1 %26, label %27, label %28

27:                                               ; preds = %21, %4
  store i32 1, ptr %10, align 4, !tbaa !5
  br label %28

28:                                               ; preds = %27, %21
  %29 = load ptr, ptr %7, align 8, !tbaa !24
  %30 = getelementptr inbounds i8, ptr %29, i64 0
  %31 = load i8, ptr %30, align 1, !tbaa !17
  %32 = sext i8 %31 to i32
  %33 = icmp eq i32 %32, 62
  br i1 %33, label %34, label %35

34:                                               ; preds = %28
  store i32 1, ptr %12, align 4, !tbaa !5
  br label %51

35:                                               ; preds = %28
  %36 = load ptr, ptr %7, align 8, !tbaa !24
  %37 = getelementptr inbounds i8, ptr %36, i64 0
  %38 = load i8, ptr %37, align 1, !tbaa !17
  %39 = sext i8 %38 to i32
  %40 = icmp eq i32 %39, 60
  br i1 %40, label %41, label %42

41:                                               ; preds = %35
  store i32 1, ptr %11, align 4, !tbaa !5
  br label %50

42:                                               ; preds = %35
  %43 = load ptr, ptr %7, align 8, !tbaa !24
  %44 = getelementptr inbounds i8, ptr %43, i64 1
  %45 = load i8, ptr %44, align 1, !tbaa !17
  %46 = sext i8 %45 to i32
  %47 = icmp ne i32 %46, 61
  br i1 %47, label %48, label %49

48:                                               ; preds = %42
  store i32 0, ptr %5, align 4
  store i32 1, ptr %13, align 4
  br label %134

49:                                               ; preds = %42
  br label %50

50:                                               ; preds = %49, %41
  br label %51

51:                                               ; preds = %50, %34
  call void @llvm.lifetime.start.p0(i64 8, ptr %14) #13
  %52 = load i64, ptr %9, align 8, !tbaa !9
  %53 = load ptr, ptr %6, align 8, !tbaa !44
  %54 = getelementptr inbounds nuw %struct.raxIterator, ptr %53, i32 0, i32 4
  %55 = load i64, ptr %54, align 8, !tbaa !49
  %56 = icmp ult i64 %52, %55
  br i1 %56, label %57, label %59

57:                                               ; preds = %51
  %58 = load i64, ptr %9, align 8, !tbaa !9
  br label %63

59:                                               ; preds = %51
  %60 = load ptr, ptr %6, align 8, !tbaa !44
  %61 = getelementptr inbounds nuw %struct.raxIterator, ptr %60, i32 0, i32 4
  %62 = load i64, ptr %61, align 8, !tbaa !49
  br label %63

63:                                               ; preds = %59, %57
  %64 = phi i64 [ %58, %57 ], [ %62, %59 ]
  store i64 %64, ptr %14, align 8, !tbaa !9
  call void @llvm.lifetime.start.p0(i64 4, ptr %15) #13
  %65 = load ptr, ptr %6, align 8, !tbaa !44
  %66 = getelementptr inbounds nuw %struct.raxIterator, ptr %65, i32 0, i32 2
  %67 = load ptr, ptr %66, align 8, !tbaa !50
  %68 = load ptr, ptr %8, align 8, !tbaa !24
  %69 = load i64, ptr %14, align 8, !tbaa !9
  %70 = call i32 @memcmp(ptr noundef %67, ptr noundef %68, i64 noundef %69) #18
  store i32 %70, ptr %15, align 4, !tbaa !5
  %71 = load i32, ptr %11, align 4, !tbaa !5
  %72 = icmp eq i32 %71, 0
  br i1 %72, label %73, label %88

73:                                               ; preds = %63
  %74 = load i32, ptr %12, align 4, !tbaa !5
  %75 = icmp eq i32 %74, 0
  br i1 %75, label %76, label %88

76:                                               ; preds = %73
  %77 = load i32, ptr %15, align 4, !tbaa !5
  %78 = icmp eq i32 %77, 0
  br i1 %78, label %79, label %85

79:                                               ; preds = %76
  %80 = load i64, ptr %9, align 8, !tbaa !9
  %81 = load ptr, ptr %6, align 8, !tbaa !44
  %82 = getelementptr inbounds nuw %struct.raxIterator, ptr %81, i32 0, i32 4
  %83 = load i64, ptr %82, align 8, !tbaa !49
  %84 = icmp eq i64 %80, %83
  br label %85

85:                                               ; preds = %79, %76
  %86 = phi i1 [ false, %76 ], [ %84, %79 ]
  %87 = zext i1 %86 to i32
  store i32 %87, ptr %5, align 4
  store i32 1, ptr %13, align 4
  br label %133

88:                                               ; preds = %73, %63
  %89 = load i32, ptr %15, align 4, !tbaa !5
  %90 = icmp eq i32 %89, 0
  br i1 %90, label %91, label %122

91:                                               ; preds = %88
  %92 = load i32, ptr %10, align 4, !tbaa !5
  %93 = icmp ne i32 %92, 0
  br i1 %93, label %94, label %101

94:                                               ; preds = %91
  %95 = load i64, ptr %9, align 8, !tbaa !9
  %96 = load ptr, ptr %6, align 8, !tbaa !44
  %97 = getelementptr inbounds nuw %struct.raxIterator, ptr %96, i32 0, i32 4
  %98 = load i64, ptr %97, align 8, !tbaa !49
  %99 = icmp eq i64 %95, %98
  br i1 %99, label %100, label %101

100:                                              ; preds = %94
  store i32 1, ptr %5, align 4
  store i32 1, ptr %13, align 4
  br label %133

101:                                              ; preds = %94, %91
  %102 = load i32, ptr %11, align 4, !tbaa !5
  %103 = icmp ne i32 %102, 0
  br i1 %103, label %104, label %111

104:                                              ; preds = %101
  %105 = load ptr, ptr %6, align 8, !tbaa !44
  %106 = getelementptr inbounds nuw %struct.raxIterator, ptr %105, i32 0, i32 4
  %107 = load i64, ptr %106, align 8, !tbaa !49
  %108 = load i64, ptr %9, align 8, !tbaa !9
  %109 = icmp ult i64 %107, %108
  %110 = zext i1 %109 to i32
  store i32 %110, ptr %5, align 4
  store i32 1, ptr %13, align 4
  br label %133

111:                                              ; preds = %101
  %112 = load i32, ptr %12, align 4, !tbaa !5
  %113 = icmp ne i32 %112, 0
  br i1 %113, label %114, label %121

114:                                              ; preds = %111
  %115 = load ptr, ptr %6, align 8, !tbaa !44
  %116 = getelementptr inbounds nuw %struct.raxIterator, ptr %115, i32 0, i32 4
  %117 = load i64, ptr %116, align 8, !tbaa !49
  %118 = load i64, ptr %9, align 8, !tbaa !9
  %119 = icmp ugt i64 %117, %118
  %120 = zext i1 %119 to i32
  store i32 %120, ptr %5, align 4
  store i32 1, ptr %13, align 4
  br label %133

121:                                              ; preds = %111
  store i32 0, ptr %5, align 4
  store i32 1, ptr %13, align 4
  br label %133

122:                                              ; preds = %88
  %123 = load i32, ptr %15, align 4, !tbaa !5
  %124 = icmp sgt i32 %123, 0
  br i1 %124, label %125, label %129

125:                                              ; preds = %122
  %126 = load i32, ptr %12, align 4, !tbaa !5
  %127 = icmp ne i32 %126, 0
  %128 = select i1 %127, i32 1, i32 0
  store i32 %128, ptr %5, align 4
  store i32 1, ptr %13, align 4
  br label %133

129:                                              ; preds = %122
  %130 = load i32, ptr %11, align 4, !tbaa !5
  %131 = icmp ne i32 %130, 0
  %132 = select i1 %131, i32 1, i32 0
  store i32 %132, ptr %5, align 4
  store i32 1, ptr %13, align 4
  br label %133

133:                                              ; preds = %129, %125, %121, %114, %104, %100, %85
  call void @llvm.lifetime.end.p0(i64 4, ptr %15) #13
  call void @llvm.lifetime.end.p0(i64 8, ptr %14) #13
  br label %134

134:                                              ; preds = %133, %48
  call void @llvm.lifetime.end.p0(i64 4, ptr %12) #13
  call void @llvm.lifetime.end.p0(i64 4, ptr %11) #13
  call void @llvm.lifetime.end.p0(i64 4, ptr %10) #13
  %135 = load i32, ptr %5, align 4
  ret i32 %135
}