; Function Attrs: mustprogress nofree nounwind willreturn memory(read, inaccessiblemem: none) uwtable
define dso_local range(i32 0, 2) i32 @raxCompare(ptr noundef readonly captures(none) %0, ptr noundef readonly captures(none) %1, ptr noundef readonly captures(none) %2, i64 noundef %3) local_unnamed_addr #18 {
  %5 = load i8, ptr %1, align 1, !tbaa !15
  %6 = icmp eq i8 %5, 61
  br i1 %6, label %11, label %7

7:                                                ; preds = %4
  %8 = getelementptr inbounds nuw i8, ptr %1, i64 1
  %9 = load i8, ptr %8, align 1, !tbaa !15
  %10 = icmp eq i8 %9, 61
  br i1 %10, label %11, label %12

11:                                               ; preds = %7, %4
  br label %12

12:                                               ; preds = %11, %7
  %.not41.not = phi i1 [ true, %11 ], [ false, %7 ]
  %13 = icmp ne i8 %5, 62
  br i1 %13, label %14, label %19

14:                                               ; preds = %12
  %15 = icmp eq i8 %5, 60
  br i1 %15, label %19, label %16

16:                                               ; preds = %14
  %17 = getelementptr inbounds nuw i8, ptr %1, i64 1
  %18 = load i8, ptr %17, align 1, !tbaa !15
  %.not = icmp eq i8 %18, 61
  br i1 %.not, label %19, label %41

19:                                               ; preds = %14, %12, %16
  %20 = phi i1 [ true, %16 ], [ true, %12 ], [ false, %14 ]
  %21 = getelementptr inbounds nuw i8, ptr %0, i64 32
  %22 = load i64, ptr %21, align 8, !tbaa !37
  %23 = icmp ult i64 %3, %22
  %. = tail call i64 @llvm.umin.i64(i64 %3, i64 %22)
  %24 = getelementptr inbounds nuw i8, ptr %0, i64 16
  %25 = load ptr, ptr %24, align 8, !tbaa !38
  %26 = tail call i32 @memcmp(ptr noundef %25, ptr noundef %2, i64 noundef %.) #30
  %or.cond = and i1 %13, %20
  %27 = icmp eq i32 %26, 0
  br i1 %or.cond, label %28, label %30

28:                                               ; preds = %19
  %29 = icmp eq i64 %3, %22
  %spec.select = and i1 %27, %29
  br label %41

30:                                               ; preds = %19
  br i1 %27, label %31, label %37

31:                                               ; preds = %30
  %32 = icmp eq i64 %3, %22
  %or.cond44 = and i1 %.not41.not, %32
  br i1 %or.cond44, label %41, label %33

33:                                               ; preds = %31
  br i1 %20, label %36, label %34

34:                                               ; preds = %33
  %35 = icmp ult i64 %22, %3
  br label %41

36:                                               ; preds = %33
  %not.45 = xor i1 %13, true
  %narrow = and i1 %23, %not.45
  br label %41

37:                                               ; preds = %30
  %38 = icmp sgt i32 %26, 0
  br i1 %38, label %39, label %40

39:                                               ; preds = %37
  %not.40 = xor i1 %13, true
  br label %41

40:                                               ; preds = %37
  %not. = xor i1 %20, true
  br label %41

41:                                               ; preds = %28, %36, %31, %34, %39, %40, %16
  %.0.shrunk = phi i1 [ false, %16 ], [ %35, %34 ], [ %not.40, %39 ], [ %not., %40 ], [ true, %31 ], [ %narrow, %36 ], [ %spec.select, %28 ]
  %.0 = zext i1 %.0.shrunk to i32
  ret i32 %.0
}